; Function Attrs: mustprogress nofree norecurse nosync nounwind willreturn memory(read, inaccessiblemem: none) uwtable
define noundef zeroext i1 @_ZNK4base8FilePath17EndsWithSeparatorEv(ptr noundef nonnull readonly align 8 captures(none) dereferenceable(32) %0) local_unnamed_addr #8 align 2 {
  %2 = getelementptr inbounds nuw i8, ptr %0, i64 8
  %3 = load i64, ptr %2, align 8, !tbaa !9
  %4 = icmp eq i64 %3, 0
  br i1 %4, label %_ZN4base8FilePath11IsSeparatorEc.exit, label %5

5:                                                ; preds = %1
  %6 = load ptr, ptr %0, align 8, !tbaa !13
  %7 = getelementptr i8, ptr %6, i64 %3
  %8 = getelementptr i8, ptr %7, i64 -1
  %9 = load i8, ptr %8, align 1, !tbaa !12
  %10 = load i64, ptr @_ZN4base8FilePath17kSeparatorsLengthE, align 8, !tbaa !14
  %11 = add i64 %10, -1
  %.not7.not.i = icmp eq i64 %11, 0
  br i1 %.not7.not.i, label %_ZN4base8FilePath11IsSeparatorEc.exit, label %.lr.ph.i

.lr.ph.i:                                         ; preds = %5, %.lr.ph.i
  %.058.i = phi i64 [ %15, %.lr.ph.i ], [ 0, %5 ]
  %12 = getelementptr inbounds nuw [0 x i8], ptr @_ZN4base8FilePath11kSeparatorsE, i64 0, i64 %.058.i
  %13 = load i8, ptr %12, align 1, !tbaa !12
  %14 = icmp eq i8 %9, %13
  %15 = add nuw i64 %.058.i, 1
  %exitcond.not.i = icmp eq i64 %15, %11
  %or.cond = select i1 %14, i1 true, i1 %exitcond.not.i
  br i1 %or.cond, label %_ZN4base8FilePath11IsSeparatorEc.exit, label %.lr.ph.i, !llvm.loop !15

_ZN4base8FilePath11IsSeparatorEc.exit:            ; preds = %.lr.ph.i, %5, %1
  %.0 = phi i1 [ false, %1 ], [ false, %5 ], [ %14, %.lr.ph.i ]
  ret i1 %.0
}